; Function Attrs: mustprogress nofree norecurse nosync nounwind willreturn memory(read, inaccessiblemem: none) uwtable
define noundef i32 @_ZNK4YAML12EmitterState11GetFlowTypeENS_9GroupType5valueE(ptr noundef nonnull readonly align 8 captures(none) dereferenceable(224) %0, i32 noundef %1) local_unnamed_addr #6 align 2 {
  %3 = getelementptr inbounds nuw i8, ptr %0, i64 176
  %4 = load ptr, ptr %3, align 8, !tbaa !97
  %5 = getelementptr inbounds nuw i8, ptr %0, i64 184
  %6 = load ptr, ptr %5, align 8, !tbaa !97
  %7 = icmp eq ptr %4, %6
  br i1 %7, label %_ZNK4YAML12EmitterState16CurGroupFlowTypeEv.exit.thread, label %_ZNK4YAML12EmitterState16CurGroupFlowTypeEv.exit

_ZNK4YAML12EmitterState16CurGroupFlowTypeEv.exit: ; preds = %2
  %8 = getelementptr inbounds i8, ptr %6, i64 -8
  %9 = load ptr, ptr %8, align 8, !tbaa !89
  %10 = getelementptr inbounds nuw i8, ptr %9, i64 4
  %11 = load i32, ptr %10, align 4, !tbaa !102
  %12 = icmp eq i32 %11, 1
  br i1 %12, label %20, label %_ZNK4YAML12EmitterState16CurGroupFlowTypeEv.exit.thread

_ZNK4YAML12EmitterState16CurGroupFlowTypeEv.exit.thread: ; preds = %2, %_ZNK4YAML12EmitterState16CurGroupFlowTypeEv.exit
  %13 = icmp eq i32 %1, 1
  br i1 %13, label %14, label %17

14:                                               ; preds = %_ZNK4YAML12EmitterState16CurGroupFlowTypeEv.exit.thread
  %15 = getelementptr inbounds nuw i8, ptr %0, i64 96
  %16 = load i32, ptr %15, align 8, !tbaa !30
  br label %20

17:                                               ; preds = %_ZNK4YAML12EmitterState16CurGroupFlowTypeEv.exit.thread
  %18 = getelementptr inbounds nuw i8, ptr %0, i64 100
  %19 = load i32, ptr %18, align 4, !tbaa !30
  br label %20

20:                                               ; preds = %14, %17, %_ZNK4YAML12EmitterState16CurGroupFlowTypeEv.exit
  %.0 = phi i32 [ 28, %_ZNK4YAML12EmitterState16CurGroupFlowTypeEv.exit ], [ %16, %14 ], [ %19, %17 ]
  ret i32 %.0
}